; Function Attrs: mustprogress uwtable
define dso_local noundef zeroext i1 @_ZN5vcpkg4JsoneqERKNS0_6ObjectES3_(ptr nocapture noundef nonnull readonly align 8 dereferenceable(24) %0, ptr nocapture noundef nonnull readonly align 8 dereferenceable(24) %1) local_unnamed_addr #8 {
  %3 = getelementptr inbounds i8, ptr %0, i64 8
  %4 = load ptr, ptr %3, align 8
  %5 = load ptr, ptr %0, align 8
  %6 = ptrtoint ptr %4 to i64
  %7 = ptrtoint ptr %5 to i64
  %8 = sub i64 %6, %7
  %9 = getelementptr inbounds i8, ptr %1, i64 8
  %10 = load ptr, ptr %9, align 8
  %11 = load ptr, ptr %1, align 8
  %12 = ptrtoint ptr %10 to i64
  %13 = ptrtoint ptr %11 to i64
  %14 = sub i64 %12, %13
  %15 = icmp eq i64 %8, %14
  br i1 %15, label %16, label %_ZSteqISt4pairINSt7__cxx1112basic_stringIcSt11char_traitsIcESaIcEEEN5vcpkg4Json5ValueEESaISA_EEbRKSt6vectorIT_T0_ESH_.exit

16:                                               ; preds = %2
  %17 = tail call noundef zeroext i1 @_ZSt11__equal_auxIN9__gnu_cxx17__normal_iteratorIPKSt4pairINSt7__cxx1112basic_stringIcSt11char_traitsIcESaIcEEEN5vcpkg4Json5ValueEESt6vectorISC_SaISC_EEEESI_EbT_SJ_T0_(ptr %5, ptr %4, ptr %11)
  br label %_ZSteqISt4pairINSt7__cxx1112basic_stringIcSt11char_traitsIcESaIcEEEN5vcpkg4Json5ValueEESaISA_EEbRKSt6vectorIT_T0_ESH_.exit

_ZSteqISt4pairINSt7__cxx1112basic_stringIcSt11char_traitsIcESaIcEEEN5vcpkg4Json5ValueEESaISA_EEbRKSt6vectorIT_T0_ESH_.exit: ; preds = %2, %16
  %18 = phi i1 [ false, %2 ], [ %17, %16 ]
  ret i1 %18
}